target datalayout = "e-m:e-p270:32:32-p271:32:32-p272:64:64-i64:64-i128:128-f80:128-n8:16:32:64-S128"
target triple = "x86_64-unknown-linux-gnu"

%"class.std::__cxx11::basic_string" = type { %"struct.std::__cxx11::basic_string<char>::_Alloc_hider", i64, %union.anon }
%"struct.std::__cxx11::basic_string<char>::_Alloc_hider" = type { ptr }
%union.anon = type { i64, [8 x i8] }
%"class.std::allocator" = type { i8 }
%struct.hdfsFileInfo = type { i32, ptr, i64, i64, i16, i64, ptr, ptr, i16, i64 }
%"struct.arrow::io::HdfsPathInfo" = type <{ i32, [4 x i8], %"class.std::__cxx11::basic_string", %"class.std::__cxx11::basic_string", %"class.std::__cxx11::basic_string", i64, i64, i32, i32, i16, i16, [4 x i8] }>

@.str.29 = private unnamed_addr constant [50 x i8] c"basic_string: construction from null is not valid\00", align 1

; Function Attrs: mustprogress nounwind uwtable
define linkonce_odr noundef i64 @_ZNSt11char_traitsIcE6lengthEPKc(ptr noundef %__s) #2 comdat align 2 {
entry:
  %__s.addr = alloca ptr, align 8
  store ptr %__s, ptr %__s.addr, align 8
  %0 = load ptr, ptr %__s.addr, align 8
  %call = call i64 @strlen(ptr noundef %0) #14
  ret i64 %call
}

; Function Attrs: mustprogress nounwind uwtable
define linkonce_odr void @_ZNSt7__cxx1112basic_stringIcSt11char_traitsIcESaIcEE12_Alloc_hiderD2Ev(ptr noundef nonnull align 8 dereferenceable(8) %this) unnamed_addr #2 comdat align 2 {
entry:
  %this.addr = alloca ptr, align 8
  store ptr %this, ptr %this.addr, align 8
  %this1 = load ptr, ptr %this.addr, align 8
  call void @_ZNSaIcED2Ev(ptr noundef nonnull align 1 dereferenceable(1) %this1) #14
  ret void
}

; Function Attrs: mustprogress uwtable
define linkonce_odr void @_ZNSt7__cxx1112basic_stringIcSt11char_traitsIcESaIcEEC2IS3_EEPKcRKS3_(ptr noundef nonnull align 8 dereferenceable(32) %this, ptr noundef %__s, ptr noundef nonnull align 1 dereferenceable(1) %__a) unnamed_addr #0 comdat align 2 personality ptr @__gxx_personality_v0 {
entry:
  %this.addr = alloca ptr, align 8
  %__s.addr = alloca ptr, align 8
  %__a.addr = alloca ptr, align 8
  %exn.slot = alloca ptr, align 8
  %ehselector.slot = alloca i32, align 4
  %__end = alloca ptr, align 8
  store ptr %this, ptr %this.addr, align 8
  store ptr %__s, ptr %__s.addr, align 8
  store ptr %__a, ptr %__a.addr, align 8
  %this1 = load ptr, ptr %this.addr, align 8
  %_M_dataplus = getelementptr inbounds %"class.std::__cxx11::basic_string", ptr %this1, i32 0, i32 0
  %call = call noundef ptr @_ZNSt7__cxx1112basic_stringIcSt11char_traitsIcESaIcEE13_M_local_dataEv(ptr noundef nonnull align 8 dereferenceable(32) %this1)
  %0 = load ptr, ptr %__a.addr, align 8
  call void @_ZNSt7__cxx1112basic_stringIcSt11char_traitsIcESaIcEE12_Alloc_hiderC1EPcRKS3_(ptr noundef nonnull align 8 dereferenceable(8) %_M_dataplus, ptr noundef %call, ptr noundef nonnull align 1 dereferenceable(1) %0)
  %1 = load ptr, ptr %__s.addr, align 8
  %cmp = icmp eq ptr %1, null
  br i1 %cmp, label %if.then, label %if.end

if.then:                                          ; preds = %entry
  invoke void @_ZSt19__throw_logic_errorPKc(ptr noundef @.str.29) #19
          to label %invoke.cont unwind label %lpad

invoke.cont:                                      ; preds = %if.then
  unreachable

lpad:                                             ; preds = %invoke.cont2, %if.end, %if.then
  %2 = landingpad { ptr, i32 }
          cleanup
  %3 = extractvalue { ptr, i32 } %2, 0
  store ptr %3, ptr %exn.slot, align 8
  %4 = extractvalue { ptr, i32 } %2, 1
  store i32 %4, ptr %ehselector.slot, align 4
  call void @_ZNSt7__cxx1112basic_stringIcSt11char_traitsIcESaIcEE12_Alloc_hiderD2Ev(ptr noundef nonnull align 8 dereferenceable(8) %_M_dataplus) #14
  br label %eh.resume

if.end:                                           ; preds = %entry
  %5 = load ptr, ptr %__s.addr, align 8
  %6 = load ptr, ptr %__s.addr, align 8
  %call3 = invoke noundef i64 @_ZNSt11char_traitsIcE6lengthEPKc(ptr noundef %6)
          to label %invoke.cont2 unwind label %lpad

invoke.cont2:                                     ; preds = %if.end
  %add.ptr = getelementptr inbounds i8, ptr %5, i64 %call3
  store ptr %add.ptr, ptr %__end, align 8
  %7 = load ptr, ptr %__s.addr, align 8
  %8 = load ptr, ptr %__end, align 8
  invoke void @_ZNSt7__cxx1112basic_stringIcSt11char_traitsIcESaIcEE12_M_constructIPKcEEvT_S8_St20forward_iterator_tag(ptr noundef nonnull align 8 dereferenceable(32) %this1, ptr noundef %7, ptr noundef %8)
          to label %invoke.cont4 unwind label %lpad

invoke.cont4:                                     ; preds = %invoke.cont2
  ret void

eh.resume:                                        ; preds = %lpad
  %exn = load ptr, ptr %exn.slot, align 8
  %sel = load i32, ptr %ehselector.slot, align 4
  %lpad.val = insertvalue { ptr, i32 } poison, ptr %exn, 0
  %lpad.val5 = insertvalue { ptr, i32 } %lpad.val, i32 %sel, 1
  resume { ptr, i32 } %lpad.val5
}

; Function Attrs: mustprogress uwtable
define internal void @_ZN5arrow2ioL11SetPathInfoEPK12hdfsFileInfoPNS0_12HdfsPathInfoE(ptr noundef %input, ptr noundef %out) #0 personality ptr @__gxx_personality_v0 {
entry:
  %input.addr = alloca ptr, align 8
  %out.addr = alloca ptr, align 8
  %ref.tmp = alloca %"class.std::__cxx11::basic_string", align 8
  %ref.tmp1 = alloca %"class.std::allocator", align 1
  %exn.slot = alloca ptr, align 8
  %ehselector.slot = alloca i32, align 4
  %ref.tmp2 = alloca %"class.std::__cxx11::basic_string", align 8
  %ref.tmp3 = alloca %"class.std::allocator", align 1
  %ref.tmp7 = alloca %"class.std::__cxx11::basic_string", align 8
  %ref.tmp8 = alloca %"class.std::allocator", align 1
  store ptr %input, ptr %input.addr, align 8
  store ptr %out, ptr %out.addr, align 8
  %0 = load ptr, ptr %input.addr, align 8
  %mKind = getelementptr inbounds %struct.hdfsFileInfo, ptr %0, i32 0, i32 0
  %1 = load i32, ptr %mKind, align 8
  %cmp = icmp eq i32 %1, 70
  %cond = select i1 %cmp, i32 0, i32 1
  %2 = load ptr, ptr %out.addr, align 8
  %kind = getelementptr inbounds %"struct.arrow::io::HdfsPathInfo", ptr %2, i32 0, i32 0
  store i32 %cond, ptr %kind, align 8
  %3 = load ptr, ptr %input.addr, align 8
  %mName = getelementptr inbounds %struct.hdfsFileInfo, ptr %3, i32 0, i32 1
  %4 = load ptr, ptr %mName, align 8
  call void @_ZNSaIcEC1Ev(ptr noundef nonnull align 1 dereferenceable(1) %ref.tmp1) #14
  invoke void @_ZNSt7__cxx1112basic_stringIcSt11char_traitsIcESaIcEEC2IS3_EEPKcRKS3_(ptr noundef nonnull align 8 dereferenceable(32) %ref.tmp, ptr noundef %4, ptr noundef nonnull align 1 dereferenceable(1) %ref.tmp1)
          to label %invoke.cont unwind label %lpad

invoke.cont:                                      ; preds = %entry
  %5 = load ptr, ptr %out.addr, align 8
  %name = getelementptr inbounds %"struct.arrow::io::HdfsPathInfo", ptr %5, i32 0, i32 2
  %call = call noundef nonnull align 8 dereferenceable(32) ptr @_ZNSt7__cxx1112basic_stringIcSt11char_traitsIcESaIcEEaSEOS4_(ptr noundef nonnull align 8 dereferenceable(32) %name, ptr noundef nonnull align 8 dereferenceable(32) %ref.tmp) #14
  call void @_ZNSt7__cxx1112basic_stringIcSt11char_traitsIcESaIcEED1Ev(ptr noundef nonnull align 8 dereferenceable(32) %ref.tmp) #14
  call void @_ZNSaIcED1Ev(ptr noundef nonnull align 1 dereferenceable(1) %ref.tmp1) #14
  %6 = load ptr, ptr %input.addr, align 8
  %mOwner = getelementptr inbounds %struct.hdfsFileInfo, ptr %6, i32 0, i32 6
  %7 = load ptr, ptr %mOwner, align 8
  call void @_ZNSaIcEC1Ev(ptr noundef nonnull align 1 dereferenceable(1) %ref.tmp3) #14
  invoke void @_ZNSt7__cxx1112basic_stringIcSt11char_traitsIcESaIcEEC2IS3_EEPKcRKS3_(ptr noundef nonnull align 8 dereferenceable(32) %ref.tmp2, ptr noundef %7, ptr noundef nonnull align 1 dereferenceable(1) %ref.tmp3)
          to label %invoke.cont5 unwind label %lpad4

invoke.cont5:                                     ; preds = %invoke.cont
  %8 = load ptr, ptr %out.addr, align 8
  %owner = getelementptr inbounds %"struct.arrow::io::HdfsPathInfo", ptr %8, i32 0, i32 3
  %call6 = call noundef nonnull align 8 dereferenceable(32) ptr @_ZNSt7__cxx1112basic_stringIcSt11char_traitsIcESaIcEEaSEOS4_(ptr noundef nonnull align 8 dereferenceable(32) %owner, ptr noundef nonnull align 8 dereferenceable(32) %ref.tmp2) #14
  call void @_ZNSt7__cxx1112basic_stringIcSt11char_traitsIcESaIcEED1Ev(ptr noundef nonnull align 8 dereferenceable(32) %ref.tmp2) #14
  call void @_ZNSaIcED1Ev(ptr noundef nonnull align 1 dereferenceable(1) %ref.tmp3) #14
  %9 = load ptr, ptr %input.addr, align 8
  %mGroup = getelementptr inbounds %struct.hdfsFileInfo, ptr %9, i32 0, i32 7
  %10 = load ptr, ptr %mGroup, align 8
  call void @_ZNSaIcEC1Ev(ptr noundef nonnull align 1 dereferenceable(1) %ref.tmp8) #14
  invoke void @_ZNSt7__cxx1112basic_stringIcSt11char_traitsIcESaIcEEC2IS3_EEPKcRKS3_(ptr noundef nonnull align 8 dereferenceable(32) %ref.tmp7, ptr noundef %10, ptr noundef nonnull align 1 dereferenceable(1) %ref.tmp8)
          to label %invoke.cont10 unwind label %lpad9

invoke.cont10:                                    ; preds = %invoke.cont5
  %11 = load ptr, ptr %out.addr, align 8
  %group = getelementptr inbounds %"struct.arrow::io::HdfsPathInfo", ptr %11, i32 0, i32 4
  %call11 = call noundef nonnull align 8 dereferenceable(32) ptr @_ZNSt7__cxx1112basic_stringIcSt11char_traitsIcESaIcEEaSEOS4_(ptr noundef nonnull align 8 dereferenceable(32) %group, ptr noundef nonnull align 8 dereferenceable(32) %ref.tmp7) #14
  call void @_ZNSt7__cxx1112basic_stringIcSt11char_traitsIcESaIcEED1Ev(ptr noundef nonnull align 8 dereferenceable(32) %ref.tmp7) #14
  call void @_ZNSaIcED1Ev(ptr noundef nonnull align 1 dereferenceable(1) %ref.tmp8) #14
  %12 = load ptr, ptr %input.addr, align 8
  %mLastAccess = getelementptr inbounds %struct.hdfsFileInfo, ptr %12, i32 0, i32 9
  %13 = load i64, ptr %mLastAccess, align 8
  %conv = trunc i64 %13 to i32
  %14 = load ptr, ptr %out.addr, align 8
  %last_access_time = getelementptr inbounds %"struct.arrow::io::HdfsPathInfo", ptr %14, i32 0, i32 8
  store i32 %conv, ptr %last_access_time, align 4
  %15 = load ptr, ptr %input.addr, align 8
  %mLastMod = getelementptr inbounds %struct.hdfsFileInfo, ptr %15, i32 0, i32 2
  %16 = load i64, ptr %mLastMod, align 8
  %conv12 = trunc i64 %16 to i32
  %17 = load ptr, ptr %out.addr, align 8
  %last_modified_time = getelementptr inbounds %"struct.arrow::io::HdfsPathInfo", ptr %17, i32 0, i32 7
  store i32 %conv12, ptr %last_modified_time, align 8
  %18 = load ptr, ptr %input.addr, align 8
  %mSize = getelementptr inbounds %struct.hdfsFileInfo, ptr %18, i32 0, i32 3
  %19 = load i64, ptr %mSize, align 8
  %20 = load ptr, ptr %out.addr, align 8
  %size = getelementptr inbounds %"struct.arrow::io::HdfsPathInfo", ptr %20, i32 0, i32 5
  store i64 %19, ptr %size, align 8
  %21 = load ptr, ptr %input.addr, align 8
  %mReplication = getelementptr inbounds %struct.hdfsFileInfo, ptr %21, i32 0, i32 4
  %22 = load i16, ptr %mReplication, align 8
  %23 = load ptr, ptr %out.addr, align 8
  %replication = getelementptr inbounds %"struct.arrow::io::HdfsPathInfo", ptr %23, i32 0, i32 9
  store i16 %22, ptr %replication, align 8
  %24 = load ptr, ptr %input.addr, align 8
  %mBlockSize = getelementptr inbounds %struct.hdfsFileInfo, ptr %24, i32 0, i32 5
  %25 = load i64, ptr %mBlockSize, align 8
  %26 = load ptr, ptr %out.addr, align 8
  %block_size = getelementptr inbounds %"struct.arrow::io::HdfsPathInfo", ptr %26, i32 0, i32 6
  store i64 %25, ptr %block_size, align 8
  %27 = load ptr, ptr %input.addr, align 8
  %mPermissions = getelementptr inbounds %struct.hdfsFileInfo, ptr %27, i32 0, i32 8
  %28 = load i16, ptr %mPermissions, align 8
  %29 = load ptr, ptr %out.addr, align 8
  %permissions = getelementptr inbounds %"struct.arrow::io::HdfsPathInfo", ptr %29, i32 0, i32 10
  store i16 %28, ptr %permissions, align 2
  ret void

lpad:                                             ; preds = %entry
  %30 = landingpad { ptr, i32 }
          cleanup
  %31 = extractvalue { ptr, i32 } %30, 0
  store ptr %31, ptr %exn.slot, align 8
  %32 = extractvalue { ptr, i32 } %30, 1
  store i32 %32, ptr %ehselector.slot, align 4
  call void @_ZNSaIcED1Ev(ptr noundef nonnull align 1 dereferenceable(1) %ref.tmp1) #14
  br label %eh.resume

lpad4:                                            ; preds = %invoke.cont
  %33 = landingpad { ptr, i32 }
          cleanup
  %34 = extractvalue { ptr, i32 } %33, 0
  store ptr %34, ptr %exn.slot, align 8
  %35 = extractvalue { ptr, i32 } %33, 1
  store i32 %35, ptr %ehselector.slot, align 4
  call void @_ZNSaIcED1Ev(ptr noundef nonnull align 1 dereferenceable(1) %ref.tmp3) #14
  br label %eh.resume

lpad9:                                            ; preds = %invoke.cont5
  %36 = landingpad { ptr, i32 }
          cleanup
  %37 = extractvalue { ptr, i32 } %36, 0
  store ptr %37, ptr %exn.slot, align 8
  %38 = extractvalue { ptr, i32 } %36, 1
  store i32 %38, ptr %ehselector.slot, align 4
  call void @_ZNSaIcED1Ev(ptr noundef nonnull align 1 dereferenceable(1) %ref.tmp8) #14
  br label %eh.resume

eh.resume:                                        ; preds = %lpad9, %lpad4, %lpad
  %exn = load ptr, ptr %exn.slot, align 8
  %sel = load i32, ptr %ehselector.slot, align 4
  %lpad.val = insertvalue { ptr, i32 } poison, ptr %exn, 0
  %lpad.val13 = insertvalue { ptr, i32 } %lpad.val, i32 %sel, 1
  resume { ptr, i32 } %lpad.val13
}