; Function Attrs: mustprogress uwtable
define internal fastcc void @_ZN5arrow2ioL11SetPathInfoEPK12hdfsFileInfoPNS0_12HdfsPathInfoE(ptr nocapture noundef readonly %input, ptr noundef %out) unnamed_addr #0 personality ptr @__gxx_personality_v0 {
entry:
  %ref.tmp = alloca %"class.std::__cxx11::basic_string", align 8
  %ref.tmp1 = alloca %"class.std::allocator", align 1
  %ref.tmp2 = alloca %"class.std::__cxx11::basic_string", align 8
  %ref.tmp3 = alloca %"class.std::allocator", align 1
  %ref.tmp7 = alloca %"class.std::__cxx11::basic_string", align 8
  %ref.tmp8 = alloca %"class.std::allocator", align 1
  %0 = load i32, ptr %input, align 8
  %cmp = icmp ne i32 %0, 70
  %cond = zext i1 %cmp to i32
  store i32 %cond, ptr %out, align 8
  %mName = getelementptr inbounds i8, ptr %input, i64 8
  %1 = load ptr, ptr %mName, align 8
  call void @_ZNSaIcEC1Ev(ptr noundef nonnull align 1 dereferenceable(1) %ref.tmp1) #21
  %call.i20 = invoke noundef ptr @_ZNSt7__cxx1112basic_stringIcSt11char_traitsIcESaIcEE13_M_local_dataEv(ptr noundef nonnull align 8 dereferenceable(32) %ref.tmp)
          to label %call.i.noexc unwind label %lpad

call.i.noexc:                                     ; preds = %entry
  invoke void @_ZNSt7__cxx1112basic_stringIcSt11char_traitsIcESaIcEE12_Alloc_hiderC1EPcRKS3_(ptr noundef nonnull align 8 dereferenceable(8) %ref.tmp, ptr noundef %call.i20, ptr noundef nonnull align 1 dereferenceable(1) %ref.tmp1)
          to label %.noexc unwind label %lpad

.noexc:                                           ; preds = %call.i.noexc
  %cmp.i = icmp eq ptr %1, null
  br i1 %cmp.i, label %if.then.i, label %if.end.i

if.then.i:                                        ; preds = %.noexc
  invoke void @_ZSt19__throw_logic_errorPKc(ptr noundef nonnull @.str.29) #25
          to label %invoke.cont.i unwind label %lpad.i

invoke.cont.i:                                    ; preds = %if.then.i
  unreachable

lpad.i:                                           ; preds = %if.end.i, %if.then.i
  %2 = landingpad { ptr, i32 }
          cleanup
  call void @_ZNSaIcED2Ev(ptr noundef nonnull align 1 dereferenceable(1) %ref.tmp) #21
  br label %eh.resume

if.end.i:                                         ; preds = %.noexc
  %call.i.i = call noundef i64 @strlen(ptr noundef nonnull dereferenceable(1) %1) #21
  %add.ptr.i = getelementptr inbounds i8, ptr %1, i64 %call.i.i
  invoke void @_ZNSt7__cxx1112basic_stringIcSt11char_traitsIcESaIcEE12_M_constructIPKcEEvT_S8_St20forward_iterator_tag(ptr noundef nonnull align 8 dereferenceable(32) %ref.tmp, ptr noundef nonnull %1, ptr noundef nonnull %add.ptr.i)
          to label %invoke.cont unwind label %lpad.i

invoke.cont:                                      ; preds = %if.end.i
  %name = getelementptr inbounds i8, ptr %out, i64 8
  %call = call noundef nonnull align 8 dereferenceable(32) ptr @_ZNSt7__cxx1112basic_stringIcSt11char_traitsIcESaIcEEaSEOS4_(ptr noundef nonnull align 8 dereferenceable(32) %name, ptr noundef nonnull align 8 dereferenceable(32) %ref.tmp) #21
  call void @_ZNSt7__cxx1112basic_stringIcSt11char_traitsIcESaIcEED1Ev(ptr noundef nonnull align 8 dereferenceable(32) %ref.tmp) #21
  call void @_ZNSaIcED1Ev(ptr noundef nonnull align 1 dereferenceable(1) %ref.tmp1) #21
  %mOwner = getelementptr inbounds i8, ptr %input, i64 48
  %3 = load ptr, ptr %mOwner, align 8
  call void @_ZNSaIcEC1Ev(ptr noundef nonnull align 1 dereferenceable(1) %ref.tmp3) #21
  %call.i29 = invoke noundef ptr @_ZNSt7__cxx1112basic_stringIcSt11char_traitsIcESaIcEE13_M_local_dataEv(ptr noundef nonnull align 8 dereferenceable(32) %ref.tmp2)
          to label %call.i.noexc28 unwind label %lpad4

call.i.noexc28:                                   ; preds = %invoke.cont
  invoke void @_ZNSt7__cxx1112basic_stringIcSt11char_traitsIcESaIcEE12_Alloc_hiderC1EPcRKS3_(ptr noundef nonnull align 8 dereferenceable(8) %ref.tmp2, ptr noundef %call.i29, ptr noundef nonnull align 1 dereferenceable(1) %ref.tmp3)
          to label %.noexc30 unwind label %lpad4

.noexc30:                                         ; preds = %call.i.noexc28
  %cmp.i21 = icmp eq ptr %3, null
  br i1 %cmp.i21, label %if.then.i26, label %if.end.i22

if.then.i26:                                      ; preds = %.noexc30
  invoke void @_ZSt19__throw_logic_errorPKc(ptr noundef nonnull @.str.29) #25
          to label %invoke.cont.i27 unwind label %lpad.i25

invoke.cont.i27:                                  ; preds = %if.then.i26
  unreachable

lpad.i25:                                         ; preds = %if.end.i22, %if.then.i26
  %4 = landingpad { ptr, i32 }
          cleanup
  call void @_ZNSaIcED2Ev(ptr noundef nonnull align 1 dereferenceable(1) %ref.tmp2) #21
  br label %eh.resume

if.end.i22:                                       ; preds = %.noexc30
  %call.i.i23 = call noundef i64 @strlen(ptr noundef nonnull dereferenceable(1) %3) #21
  %add.ptr.i24 = getelementptr inbounds i8, ptr %3, i64 %call.i.i23
  invoke void @_ZNSt7__cxx1112basic_stringIcSt11char_traitsIcESaIcEE12_M_constructIPKcEEvT_S8_St20forward_iterator_tag(ptr noundef nonnull align 8 dereferenceable(32) %ref.tmp2, ptr noundef nonnull %3, ptr noundef nonnull %add.ptr.i24)
          to label %invoke.cont5 unwind label %lpad.i25

invoke.cont5:                                     ; preds = %if.end.i22
  %owner = getelementptr inbounds i8, ptr %out, i64 40
  %call6 = call noundef nonnull align 8 dereferenceable(32) ptr @_ZNSt7__cxx1112basic_stringIcSt11char_traitsIcESaIcEEaSEOS4_(ptr noundef nonnull align 8 dereferenceable(32) %owner, ptr noundef nonnull align 8 dereferenceable(32) %ref.tmp2) #21
  call void @_ZNSt7__cxx1112basic_stringIcSt11char_traitsIcESaIcEED1Ev(ptr noundef nonnull align 8 dereferenceable(32) %ref.tmp2) #21
  call void @_ZNSaIcED1Ev(ptr noundef nonnull align 1 dereferenceable(1) %ref.tmp3) #21
  %mGroup = getelementptr inbounds i8, ptr %input, i64 56
  %5 = load ptr, ptr %mGroup, align 8
  call void @_ZNSaIcEC1Ev(ptr noundef nonnull align 1 dereferenceable(1) %ref.tmp8) #21
  %call.i41 = invoke noundef ptr @_ZNSt7__cxx1112basic_stringIcSt11char_traitsIcESaIcEE13_M_local_dataEv(ptr noundef nonnull align 8 dereferenceable(32) %ref.tmp7)
          to label %call.i.noexc40 unwind label %lpad9

call.i.noexc40:                                   ; preds = %invoke.cont5
  invoke void @_ZNSt7__cxx1112basic_stringIcSt11char_traitsIcESaIcEE12_Alloc_hiderC1EPcRKS3_(ptr noundef nonnull align 8 dereferenceable(8) %ref.tmp7, ptr noundef %call.i41, ptr noundef nonnull align 1 dereferenceable(1) %ref.tmp8)
          to label %.noexc42 unwind label %lpad9

.noexc42:                                         ; preds = %call.i.noexc40
  %cmp.i33 = icmp eq ptr %5, null
  br i1 %cmp.i33, label %if.then.i38, label %if.end.i34

if.then.i38:                                      ; preds = %.noexc42
  invoke void @_ZSt19__throw_logic_errorPKc(ptr noundef nonnull @.str.29) #25
          to label %invoke.cont.i39 unwind label %lpad.i37

invoke.cont.i39:                                  ; preds = %if.then.i38
  unreachable

lpad.i37:                                         ; preds = %if.end.i34, %if.then.i38
  %6 = landingpad { ptr, i32 }
          cleanup
  call void @_ZNSaIcED2Ev(ptr noundef nonnull align 1 dereferenceable(1) %ref.tmp7) #21
  br label %eh.resume

if.end.i34:                                       ; preds = %.noexc42
  %call.i.i35 = call noundef i64 @strlen(ptr noundef nonnull dereferenceable(1) %5) #21
  %add.ptr.i36 = getelementptr inbounds i8, ptr %5, i64 %call.i.i35
  invoke void @_ZNSt7__cxx1112basic_stringIcSt11char_traitsIcESaIcEE12_M_constructIPKcEEvT_S8_St20forward_iterator_tag(ptr noundef nonnull align 8 dereferenceable(32) %ref.tmp7, ptr noundef nonnull %5, ptr noundef nonnull %add.ptr.i36)
          to label %invoke.cont10 unwind label %lpad.i37

invoke.cont10:                                    ; preds = %if.end.i34
  %group = getelementptr inbounds i8, ptr %out, i64 72
  %call11 = call noundef nonnull align 8 dereferenceable(32) ptr @_ZNSt7__cxx1112basic_stringIcSt11char_traitsIcESaIcEEaSEOS4_(ptr noundef nonnull align 8 dereferenceable(32) %group, ptr noundef nonnull align 8 dereferenceable(32) %ref.tmp7) #21
  call void @_ZNSt7__cxx1112basic_stringIcSt11char_traitsIcESaIcEED1Ev(ptr noundef nonnull align 8 dereferenceable(32) %ref.tmp7) #21
  call void @_ZNSaIcED1Ev(ptr noundef nonnull align 1 dereferenceable(1) %ref.tmp8) #21
  %mLastAccess = getelementptr inbounds i8, ptr %input, i64 72
  %7 = load i64, ptr %mLastAccess, align 8
  %conv = trunc i64 %7 to i32
  %last_access_time = getelementptr inbounds i8, ptr %out, i64 124
  store i32 %conv, ptr %last_access_time, align 4
  %mLastMod = getelementptr inbounds i8, ptr %input, i64 16
  %8 = load i64, ptr %mLastMod, align 8
  %conv12 = trunc i64 %8 to i32
  %last_modified_time = getelementptr inbounds i8, ptr %out, i64 120
  store i32 %conv12, ptr %last_modified_time, align 8
  %mSize = getelementptr inbounds i8, ptr %input, i64 24
  %9 = load i64, ptr %mSize, align 8
  %size = getelementptr inbounds i8, ptr %out, i64 104
  store i64 %9, ptr %size, align 8
  %mReplication = getelementptr inbounds i8, ptr %input, i64 32
  %10 = load i16, ptr %mReplication, align 8
  %replication = getelementptr inbounds i8, ptr %out, i64 128
  store i16 %10, ptr %replication, align 8
  %mBlockSize = getelementptr inbounds i8, ptr %input, i64 40
  %11 = load i64, ptr %mBlockSize, align 8
  %block_size = getelementptr inbounds i8, ptr %out, i64 112
  store i64 %11, ptr %block_size, align 8
  %mPermissions = getelementptr inbounds i8, ptr %input, i64 64
  %12 = load i16, ptr %mPermissions, align 8
  %permissions = getelementptr inbounds i8, ptr %out, i64 130
  store i16 %12, ptr %permissions, align 2
  ret void

lpad:                                             ; preds = %call.i.noexc, %entry
  %13 = landingpad { ptr, i32 }
          cleanup
  br label %eh.resume

lpad4:                                            ; preds = %call.i.noexc28, %invoke.cont
  %14 = landingpad { ptr, i32 }
          cleanup
  br label %eh.resume

lpad9:                                            ; preds = %call.i.noexc40, %invoke.cont5
  %15 = landingpad { ptr, i32 }
          cleanup
  br label %eh.resume

eh.resume:                                        ; preds = %lpad9, %lpad.i37, %lpad4, %lpad.i25, %lpad, %lpad.i
  %ref.tmp8.sink = phi ptr [ %ref.tmp1, %lpad.i ], [ %ref.tmp1, %lpad ], [ %ref.tmp3, %lpad.i25 ], [ %ref.tmp3, %lpad4 ], [ %ref.tmp8, %lpad.i37 ], [ %ref.tmp8, %lpad9 ]
  %.pn = phi { ptr, i32 } [ %2, %lpad.i ], [ %13, %lpad ], [ %4, %lpad.i25 ], [ %14, %lpad4 ], [ %6, %lpad.i37 ], [ %15, %lpad9 ]
  call void @_ZNSaIcED1Ev(ptr noundef nonnull align 1 dereferenceable(1) %ref.tmp8.sink) #21
  resume { ptr, i32 } %.pn
}